; ModuleID = '36/1598.c'
source_filename = "36/1598.c"
target datalayout = "e-m:e-p270:32:32-p271:32:32-p272:64:64-i64:64-f80:128-n8:16:32:64-S128"
target triple = "x86_64-pc-linux-gnu"

@.str = private unnamed_addr constant [5 x i8] c"%s%s\00", align 1
@.str.1 = private unnamed_addr constant [3 x i8] c"NO\00", align 1
@.str.2 = private unnamed_addr constant [4 x i8] c"YES\00", align 1

; Function Attrs: noinline nounwind uwtable
define dso_local i32 @main() #0 {
  %1 = alloca i32, align 4
  %2 = alloca i32, align 4
  %3 = alloca [2 x [1000 x i8]], align 16
  store i32 0, i32* %1, align 4
  %4 = getelementptr inbounds [2 x [1000 x i8]], [2 x [1000 x i8]]* %3, i64 0, i64 0
  %5 = getelementptr inbounds [1000 x i8], [1000 x i8]* %4, i64 0, i64 0
  %6 = getelementptr inbounds [2 x [1000 x i8]], [2 x [1000 x i8]]* %3, i64 0, i64 1
  %7 = getelementptr inbounds [1000 x i8], [1000 x i8]* %6, i64 0, i64 0
  %8 = call i32 (i8*, ...) @__isoc99_scanf(i8* getelementptr inbounds ([5 x i8], [5 x i8]* @.str, i64 0, i64 0), i8* %5, i8* %7)
  %9 = getelementptr inbounds [2 x [1000 x i8]], [2 x [1000 x i8]]* %3, i64 0, i64 0
  %10 = getelementptr inbounds [1000 x i8], [1000 x i8]* %9, i64 0, i64 0
  call void @jg(i8* %10)
  %11 = getelementptr inbounds [2 x [1000 x i8]], [2 x [1000 x i8]]* %3, i64 0, i64 1
  %12 = getelementptr inbounds [1000 x i8], [1000 x i8]* %11, i64 0, i64 0
  call void @jg(i8* %12)
  %13 = getelementptr inbounds [2 x [1000 x i8]], [2 x [1000 x i8]]* %3, i64 0, i64 0
  %14 = getelementptr inbounds [1000 x i8], [1000 x i8]* %13, i64 0, i64 0
  %15 = getelementptr inbounds [2 x [1000 x i8]], [2 x [1000 x i8]]* %3, i64 0, i64 1
  %16 = getelementptr inbounds [1000 x i8], [1000 x i8]* %15, i64 0, i64 0
  %17 = call i32 @strcmp(i8* %14, i8* %16) #3
  %18 = icmp ne i32 %17, 0
  br i1 %18, label %19, label %21

19:                                               ; preds = %0
  %20 = call i32 (i8*, ...) @printf(i8* getelementptr inbounds ([3 x i8], [3 x i8]* @.str.1, i64 0, i64 0))
  br label %23

21:                                               ; preds = %0
  %22 = call i32 (i8*, ...) @printf(i8* getelementptr inbounds ([4 x i8], [4 x i8]* @.str.2, i64 0, i64 0))
  br label %23

23:                                               ; preds = %21, %19
  ret i32 0
}

declare dso_local i32 @__isoc99_scanf(i8*, ...) #1

; Function Attrs: noinline nounwind uwtable
define dso_local void @jg(i8* %0) #0 {
  %2 = alloca i8*, align 8
  %3 = alloca i32, align 4
  %4 = alloca i32, align 4
  %5 = alloca i32, align 4
  %6 = alloca i8, align 1
  store i8* %0, i8** %2, align 8
  %7 = load i8*, i8** %2, align 8
  %8 = call i64 @strlen(i8* %7) #3
  %9 = trunc i64 %8 to i32
  store i32 %9, i32* %5, align 4
  store i32 0, i32* %3, align 4
  br label %10

10:                                               ; preds = %61, %1
  %11 = load i32, i32* %3, align 4
  %12 = load i32, i32* %5, align 4
  %13 = sub nsw i32 %12, 1
  %14 = icmp slt i32 %11, %13
  br i1 %14, label %15, label %64

15:                                               ; preds = %10
  %16 = load i32, i32* %3, align 4
  %17 = add nsw i32 %16, 1
  store i32 %17, i32* %4, align 4
  br label %18

18:                                               ; preds = %57, %15
  %19 = load i32, i32* %4, align 4
  %20 = load i32, i32* %5, align 4
  %21 = icmp slt i32 %19, %20
  br i1 %21, label %22, label %60

22:                                               ; preds = %18
  %23 = load i8*, i8** %2, align 8
  %24 = load i32, i32* %3, align 4
  %25 = sext i32 %24 to i64
  %26 = getelementptr inbounds i8, i8* %23, i64 %25
  %27 = load i8, i8* %26, align 1
  %28 = sext i8 %27 to i32
  %29 = load i8*, i8** %2, align 8
  %30 = load i32, i32* %4, align 4
  %31 = sext i32 %30 to i64
  %32 = getelementptr inbounds i8, i8* %29, i64 %31
  %33 = load i8, i8* %32, align 1
  %34 = sext i8 %33 to i32
  %35 = icmp sgt i32 %28, %34
  br i1 %35, label %36, label %56

36:                                               ; preds = %22
  %37 = load i8*, i8** %2, align 8
  %38 = load i32, i32* %3, align 4
  %39 = sext i32 %38 to i64
  %40 = getelementptr inbounds i8, i8* %37, i64 %39
  %41 = load i8, i8* %40, align 1
  store i8 %41, i8* %6, align 1
  %42 = load i8*, i8** %2, align 8
  %43 = load i32, i32* %4, align 4
  %44 = sext i32 %43 to i64
  %45 = getelementptr inbounds i8, i8* %42, i64 %44
  %46 = load i8, i8* %45, align 1
  %47 = load i8*, i8** %2, align 8
  %48 = load i32, i32* %3, align 4
  %49 = sext i32 %48 to i64
  %50 = getelementptr inbounds i8, i8* %47, i64 %49
  store i8 %46, i8* %50, align 1
  %51 = load i8, i8* %6, align 1
  %52 = load i8*, i8** %2, align 8
  %53 = load i32, i32* %4, align 4
  %54 = sext i32 %53 to i64
  %55 = getelementptr inbounds i8, i8* %52, i64 %54
  store i8 %51, i8* %55, align 1
  br label %56

56:                                               ; preds = %36, %22
  br label %57

57:                                               ; preds = %56
  %58 = load i32, i32* %4, align 4
  %59 = add nsw i32 %58, 1
  store i32 %59, i32* %4, align 4
  br label %18

60:                                               ; preds = %18
  br label %61

61:                                               ; preds = %60
  %62 = load i32, i32* %3, align 4
  %63 = add nsw i32 %62, 1
  store i32 %63, i32* %3, align 4
  br label %10

64:                                               ; preds = %10
  ret void
}

; Function Attrs: nounwind readonly
declare dso_local i32 @strcmp(i8*, i8*) #2

declare dso_local i32 @printf(i8*, ...) #1

; Function Attrs: nounwind readonly
declare dso_local i64 @strlen(i8*) #2


!llvm.module.flags = !{!0}
!llvm.ident = !{!1}

!0 = !{i32 1, !"wchar_size", i32 4}
!1 = !{!"clang version 10.0.0-4ubuntu1 "}
